target datalayout = "e-m:e-p270:32:32-p271:32:32-p272:64:64-i64:64-i128:128-f80:128-n8:16:32:64-S128"
target triple = "x86_64-pc-linux-gnu"

%struct._generic_N_Vector = type { ptr, ptr, ptr }

; Function Attrs: nounwind uwtable
define i32 @SUNModifiedGS(ptr noundef %0, ptr noundef %1, i32 noundef %2, i32 noundef %3, ptr noundef %4) #0 {
  %6 = alloca i32, align 4
  %7 = alloca ptr, align 8
  %8 = alloca ptr, align 8
  %9 = alloca i32, align 4
  %10 = alloca i32, align 4
  %11 = alloca ptr, align 8
  %12 = alloca ptr, align 8
  %13 = alloca i32, align 4
  %14 = alloca i32, align 4
  %15 = alloca i32, align 4
  %16 = alloca double, align 8
  %17 = alloca double, align 8
  %18 = alloca double, align 8
  %19 = alloca double, align 8
  %20 = alloca i32, align 4
  store ptr %0, ptr %7, align 8, !tbaa !3
  store ptr %1, ptr %8, align 8, !tbaa !8
  store i32 %2, ptr %9, align 4, !tbaa !10
  store i32 %3, ptr %10, align 4, !tbaa !10
  store ptr %4, ptr %11, align 8, !tbaa !12
  call void @llvm.lifetime.start.p0(i64 8, ptr %12) #5
  %21 = load ptr, ptr %7, align 8, !tbaa !3
  %22 = getelementptr inbounds ptr, ptr %21, i64 0
  %23 = load ptr, ptr %22, align 8, !tbaa !14
  %24 = getelementptr inbounds nuw %struct._generic_N_Vector, ptr %23, i32 0, i32 2
  %25 = load ptr, ptr %24, align 8, !tbaa !16
  store ptr %25, ptr %12, align 8, !tbaa !20
  call void @llvm.lifetime.start.p0(i64 4, ptr %13) #5
  call void @llvm.lifetime.start.p0(i64 4, ptr %14) #5
  call void @llvm.lifetime.start.p0(i64 4, ptr %15) #5
  call void @llvm.lifetime.start.p0(i64 8, ptr %16) #5
  call void @llvm.lifetime.start.p0(i64 8, ptr %17) #5
  call void @llvm.lifetime.start.p0(i64 8, ptr %18) #5
  call void @llvm.lifetime.start.p0(i64 8, ptr %19) #5
  %26 = load ptr, ptr %7, align 8, !tbaa !3
  %27 = load i32, ptr %9, align 4, !tbaa !10
  %28 = sext i32 %27 to i64
  %29 = getelementptr inbounds ptr, ptr %26, i64 %28
  %30 = load ptr, ptr %29, align 8, !tbaa !14
  %31 = load ptr, ptr %7, align 8, !tbaa !3
  %32 = load i32, ptr %9, align 4, !tbaa !10
  %33 = sext i32 %32 to i64
  %34 = getelementptr inbounds ptr, ptr %31, i64 %33
  %35 = load ptr, ptr %34, align 8, !tbaa !14
  %36 = call double @N_VDotProd(ptr noundef %30, ptr noundef %35)
  store double %36, ptr %18, align 8, !tbaa !21
  %37 = load double, ptr %18, align 8, !tbaa !21
  %38 = fcmp ole double %37, 0.000000e+00
  br i1 %38, label %39, label %40

39:                                               ; preds = %5
  br label %43

40:                                               ; preds = %5
  %41 = load double, ptr %18, align 8, !tbaa !21
  %42 = call double @sqrt(double noundef %41) #5, !tbaa !10
  br label %43

43:                                               ; preds = %40, %39
  %44 = phi double [ 0.000000e+00, %39 ], [ %42, %40 ]
  store double %44, ptr %18, align 8, !tbaa !21
  %45 = load i32, ptr %9, align 4, !tbaa !10
  %46 = sub nsw i32 %45, 1
  store i32 %46, ptr %14, align 4, !tbaa !10
  %47 = load i32, ptr %9, align 4, !tbaa !10
  %48 = load i32, ptr %10, align 4, !tbaa !10
  %49 = sub nsw i32 %47, %48
  %50 = icmp sgt i32 %49, 0
  br i1 %50, label %51, label %55

51:                                               ; preds = %43
  %52 = load i32, ptr %9, align 4, !tbaa !10
  %53 = load i32, ptr %10, align 4, !tbaa !10
  %54 = sub nsw i32 %52, %53
  br label %56

55:                                               ; preds = %43
  br label %56

56:                                               ; preds = %55, %51
  %57 = phi i32 [ %54, %51 ], [ 0, %55 ]
  store i32 %57, ptr %15, align 4, !tbaa !10
  %58 = load i32, ptr %15, align 4, !tbaa !10
  store i32 %58, ptr %13, align 4, !tbaa !10
  br label %59

59:                                               ; preds = %108, %56
  %60 = load i32, ptr %13, align 4, !tbaa !10
  %61 = load i32, ptr %9, align 4, !tbaa !10
  %62 = icmp slt i32 %60, %61
  br i1 %62, label %63, label %111

63:                                               ; preds = %59
  %64 = load ptr, ptr %7, align 8, !tbaa !3
  %65 = load i32, ptr %13, align 4, !tbaa !10
  %66 = sext i32 %65 to i64
  %67 = getelementptr inbounds ptr, ptr %64, i64 %66
  %68 = load ptr, ptr %67, align 8, !tbaa !14
  %69 = load ptr, ptr %7, align 8, !tbaa !3
  %70 = load i32, ptr %9, align 4, !tbaa !10
  %71 = sext i32 %70 to i64
  %72 = getelementptr inbounds ptr, ptr %69, i64 %71
  %73 = load ptr, ptr %72, align 8, !tbaa !14
  %74 = call double @N_VDotProd(ptr noundef %68, ptr noundef %73)
  %75 = load ptr, ptr %8, align 8, !tbaa !8
  %76 = load i32, ptr %13, align 4, !tbaa !10
  %77 = sext i32 %76 to i64
  %78 = getelementptr inbounds ptr, ptr %75, i64 %77
  %79 = load ptr, ptr %78, align 8, !tbaa !12
  %80 = load i32, ptr %14, align 4, !tbaa !10
  %81 = sext i32 %80 to i64
  %82 = getelementptr inbounds double, ptr %79, i64 %81
  store double %74, ptr %82, align 8, !tbaa !21
  %83 = load ptr, ptr %7, align 8, !tbaa !3
  %84 = load i32, ptr %9, align 4, !tbaa !10
  %85 = sext i32 %84 to i64
  %86 = getelementptr inbounds ptr, ptr %83, i64 %85
  %87 = load ptr, ptr %86, align 8, !tbaa !14
  %88 = load ptr, ptr %8, align 8, !tbaa !8
  %89 = load i32, ptr %13, align 4, !tbaa !10
  %90 = sext i32 %89 to i64
  %91 = getelementptr inbounds ptr, ptr %88, i64 %90
  %92 = load ptr, ptr %91, align 8, !tbaa !12
  %93 = load i32, ptr %14, align 4, !tbaa !10
  %94 = sext i32 %93 to i64
  %95 = getelementptr inbounds double, ptr %92, i64 %94
  %96 = load double, ptr %95, align 8, !tbaa !21
  %97 = fneg double %96
  %98 = load ptr, ptr %7, align 8, !tbaa !3
  %99 = load i32, ptr %13, align 4, !tbaa !10
  %100 = sext i32 %99 to i64
  %101 = getelementptr inbounds ptr, ptr %98, i64 %100
  %102 = load ptr, ptr %101, align 8, !tbaa !14
  %103 = load ptr, ptr %7, align 8, !tbaa !3
  %104 = load i32, ptr %9, align 4, !tbaa !10
  %105 = sext i32 %104 to i64
  %106 = getelementptr inbounds ptr, ptr %103, i64 %105
  %107 = load ptr, ptr %106, align 8, !tbaa !14
  call void @N_VLinearSum(double noundef 1.000000e+00, ptr noundef %87, double noundef %97, ptr noundef %102, ptr noundef %107)
  br label %108

108:                                              ; preds = %63
  %109 = load i32, ptr %13, align 4, !tbaa !10
  %110 = add nsw i32 %109, 1
  store i32 %110, ptr %13, align 4, !tbaa !10
  br label %59

111:                                              ; preds = %59
  %112 = load ptr, ptr %7, align 8, !tbaa !3
  %113 = load i32, ptr %9, align 4, !tbaa !10
  %114 = sext i32 %113 to i64
  %115 = getelementptr inbounds ptr, ptr %112, i64 %114
  %116 = load ptr, ptr %115, align 8, !tbaa !14
  %117 = load ptr, ptr %7, align 8, !tbaa !3
  %118 = load i32, ptr %9, align 4, !tbaa !10
  %119 = sext i32 %118 to i64
  %120 = getelementptr inbounds ptr, ptr %117, i64 %119
  %121 = load ptr, ptr %120, align 8, !tbaa !14
  %122 = call double @N_VDotProd(ptr noundef %116, ptr noundef %121)
  %123 = load ptr, ptr %11, align 8, !tbaa !12
  store double %122, ptr %123, align 8, !tbaa !21
  %124 = load ptr, ptr %11, align 8, !tbaa !12
  %125 = load double, ptr %124, align 8, !tbaa !21
  %126 = fcmp ole double %125, 0.000000e+00
  br i1 %126, label %127, label %128

127:                                              ; preds = %111
  br label %132

128:                                              ; preds = %111
  %129 = load ptr, ptr %11, align 8, !tbaa !12
  %130 = load double, ptr %129, align 8, !tbaa !21
  %131 = call double @sqrt(double noundef %130) #5, !tbaa !10
  br label %132

132:                                              ; preds = %128, %127
  %133 = phi double [ 0.000000e+00, %127 ], [ %131, %128 ]
  %134 = load ptr, ptr %11, align 8, !tbaa !12
  store double %133, ptr %134, align 8, !tbaa !21
  %135 = load double, ptr %18, align 8, !tbaa !21
  %136 = fmul double 1.000000e+03, %135
  store double %136, ptr %19, align 8, !tbaa !21
  %137 = load double, ptr %19, align 8, !tbaa !21
  %138 = load ptr, ptr %11, align 8, !tbaa !12
  %139 = load double, ptr %138, align 8, !tbaa !21
  %140 = fadd double %137, %139
  %141 = load double, ptr %19, align 8, !tbaa !21
  %142 = fcmp une double %140, %141
  br i1 %142, label %143, label %144

143:                                              ; preds = %132
  store i32 0, ptr %6, align 4
  store i32 1, ptr %20, align 4
  br label %241

144:                                              ; preds = %132
  store double 0.000000e+00, ptr %16, align 8, !tbaa !21
  %145 = load i32, ptr %15, align 4, !tbaa !10
  store i32 %145, ptr %13, align 4, !tbaa !10
  br label %146

146:                                              ; preds = %211, %144
  %147 = load i32, ptr %13, align 4, !tbaa !10
  %148 = load i32, ptr %9, align 4, !tbaa !10
  %149 = icmp slt i32 %147, %148
  br i1 %149, label %150, label %214

150:                                              ; preds = %146
  %151 = load ptr, ptr %7, align 8, !tbaa !3
  %152 = load i32, ptr %13, align 4, !tbaa !10
  %153 = sext i32 %152 to i64
  %154 = getelementptr inbounds ptr, ptr %151, i64 %153
  %155 = load ptr, ptr %154, align 8, !tbaa !14
  %156 = load ptr, ptr %7, align 8, !tbaa !3
  %157 = load i32, ptr %9, align 4, !tbaa !10
  %158 = sext i32 %157 to i64
  %159 = getelementptr inbounds ptr, ptr %156, i64 %158
  %160 = load ptr, ptr %159, align 8, !tbaa !14
  %161 = call double @N_VDotProd(ptr noundef %155, ptr noundef %160)
  store double %161, ptr %17, align 8, !tbaa !21
  %162 = load ptr, ptr %8, align 8, !tbaa !8
  %163 = load i32, ptr %13, align 4, !tbaa !10
  %164 = sext i32 %163 to i64
  %165 = getelementptr inbounds ptr, ptr %162, i64 %164
  %166 = load ptr, ptr %165, align 8, !tbaa !12
  %167 = load i32, ptr %14, align 4, !tbaa !10
  %168 = sext i32 %167 to i64
  %169 = getelementptr inbounds double, ptr %166, i64 %168
  %170 = load double, ptr %169, align 8, !tbaa !21
  %171 = fmul double 1.000000e+03, %170
  store double %171, ptr %19, align 8, !tbaa !21
  %172 = load double, ptr %19, align 8, !tbaa !21
  %173 = load double, ptr %17, align 8, !tbaa !21
  %174 = fadd double %172, %173
  %175 = load double, ptr %19, align 8, !tbaa !21
  %176 = fcmp oeq double %174, %175
  br i1 %176, label %177, label %178

177:                                              ; preds = %150
  br label %211

178:                                              ; preds = %150
  %179 = load double, ptr %17, align 8, !tbaa !21
  %180 = load ptr, ptr %8, align 8, !tbaa !8
  %181 = load i32, ptr %13, align 4, !tbaa !10
  %182 = sext i32 %181 to i64
  %183 = getelementptr inbounds ptr, ptr %180, i64 %182
  %184 = load ptr, ptr %183, align 8, !tbaa !12
  %185 = load i32, ptr %14, align 4, !tbaa !10
  %186 = sext i32 %185 to i64
  %187 = getelementptr inbounds double, ptr %184, i64 %186
  %188 = load double, ptr %187, align 8, !tbaa !21
  %189 = fadd double %188, %179
  store double %189, ptr %187, align 8, !tbaa !21
  %190 = load ptr, ptr %7, align 8, !tbaa !3
  %191 = load i32, ptr %9, align 4, !tbaa !10
  %192 = sext i32 %191 to i64
  %193 = getelementptr inbounds ptr, ptr %190, i64 %192
  %194 = load ptr, ptr %193, align 8, !tbaa !14
  %195 = load double, ptr %17, align 8, !tbaa !21
  %196 = fneg double %195
  %197 = load ptr, ptr %7, align 8, !tbaa !3
  %198 = load i32, ptr %13, align 4, !tbaa !10
  %199 = sext i32 %198 to i64
  %200 = getelementptr inbounds ptr, ptr %197, i64 %199
  %201 = load ptr, ptr %200, align 8, !tbaa !14
  %202 = load ptr, ptr %7, align 8, !tbaa !3
  %203 = load i32, ptr %9, align 4, !tbaa !10
  %204 = sext i32 %203 to i64
  %205 = getelementptr inbounds ptr, ptr %202, i64 %204
  %206 = load ptr, ptr %205, align 8, !tbaa !14
  call void @N_VLinearSum(double noundef 1.000000e+00, ptr noundef %194, double noundef %196, ptr noundef %201, ptr noundef %206)
  %207 = load double, ptr %17, align 8, !tbaa !21
  %208 = load double, ptr %17, align 8, !tbaa !21
  %209 = load double, ptr %16, align 8, !tbaa !21
  %210 = call double @llvm.fmuladd.f64(double %207, double %208, double %209)
  store double %210, ptr %16, align 8, !tbaa !21
  br label %211

211:                                              ; preds = %178, %177
  %212 = load i32, ptr %13, align 4, !tbaa !10
  %213 = add nsw i32 %212, 1
  store i32 %213, ptr %13, align 4, !tbaa !10
  br label %146

214:                                              ; preds = %146
  %215 = load double, ptr %16, align 8, !tbaa !21
  %216 = fcmp une double %215, 0.000000e+00
  br i1 %216, label %217, label %240

217:                                              ; preds = %214
  %218 = load ptr, ptr %11, align 8, !tbaa !12
  %219 = load double, ptr %218, align 8, !tbaa !21
  %220 = load ptr, ptr %11, align 8, !tbaa !12
  %221 = load double, ptr %220, align 8, !tbaa !21
  %222 = load double, ptr %16, align 8, !tbaa !21
  %223 = fneg double %222
  %224 = call double @llvm.fmuladd.f64(double %219, double %221, double %223)
  store double %224, ptr %17, align 8, !tbaa !21
  %225 = load double, ptr %17, align 8, !tbaa !21
  %226 = fcmp ogt double %225, 0.000000e+00
  br i1 %226, label %227, label %236

227:                                              ; preds = %217
  %228 = load double, ptr %17, align 8, !tbaa !21
  %229 = fcmp ole double %228, 0.000000e+00
  br i1 %229, label %230, label %231

230:                                              ; preds = %227
  br label %234

231:                                              ; preds = %227
  %232 = load double, ptr %17, align 8, !tbaa !21
  %233 = call double @sqrt(double noundef %232) #5, !tbaa !10
  br label %234

234:                                              ; preds = %231, %230
  %235 = phi double [ 0.000000e+00, %230 ], [ %233, %231 ]
  br label %237

236:                                              ; preds = %217
  br label %237

237:                                              ; preds = %236, %234
  %238 = phi double [ %235, %234 ], [ 0.000000e+00, %236 ]
  %239 = load ptr, ptr %11, align 8, !tbaa !12
  store double %238, ptr %239, align 8, !tbaa !21
  br label %240

240:                                              ; preds = %237, %214
  store i32 0, ptr %6, align 4
  store i32 1, ptr %20, align 4
  br label %241

241:                                              ; preds = %240, %143
  call void @llvm.lifetime.end.p0(i64 8, ptr %19) #5
  call void @llvm.lifetime.end.p0(i64 8, ptr %18) #5
  call void @llvm.lifetime.end.p0(i64 8, ptr %17) #5
  call void @llvm.lifetime.end.p0(i64 8, ptr %16) #5
  call void @llvm.lifetime.end.p0(i64 4, ptr %15) #5
  call void @llvm.lifetime.end.p0(i64 4, ptr %14) #5
  call void @llvm.lifetime.end.p0(i64 4, ptr %13) #5
  call void @llvm.lifetime.end.p0(i64 8, ptr %12) #5
  %242 = load i32, ptr %6, align 4
  ret i32 %242
}