; Function Attrs: nounwind uwtable
define noundef i32 @SUNModifiedGS(ptr noundef readonly captures(none) %0, ptr noundef readonly captures(none) %1, i32 noundef %2, i32 noundef %3, ptr noundef captures(none) %4) local_unnamed_addr #0 {
  %6 = sext i32 %2 to i64
  %7 = getelementptr inbounds ptr, ptr %0, i64 %6
  %8 = load ptr, ptr %7, align 8, !tbaa !3
  %9 = tail call double @N_VDotProd(ptr noundef %8, ptr noundef %8) #7
  %10 = fcmp ugt double %9, 0.000000e+00
  br i1 %10, label %11, label %14

11:                                               ; preds = %5
  %12 = tail call double @sqrt(double noundef %9) #7, !tbaa !8
  %13 = fmul double %12, 1.000000e+03
  br label %14

14:                                               ; preds = %5, %11
  %15 = phi double [ %13, %11 ], [ 0.000000e+00, %5 ]
  %16 = add nsw i32 %2, -1
  %17 = sub nsw i32 %2, %3
  %18 = tail call i32 @llvm.smax.i32(i32 %17, i32 0)
  %19 = icmp sge i32 %18, %2
  br i1 %19, label %._crit_edge, label %.lr.ph

.lr.ph:                                           ; preds = %14
  %20 = zext nneg i32 %16 to i64
  %21 = zext nneg i32 %18 to i64
  %wide.trip.count = zext nneg i32 %2 to i64
  br label %22

22:                                               ; preds = %.lr.ph, %22
  %indvars.iv = phi i64 [ %21, %.lr.ph ], [ %indvars.iv.next, %22 ]
  %23 = getelementptr inbounds nuw ptr, ptr %0, i64 %indvars.iv
  %24 = load ptr, ptr %23, align 8, !tbaa !3
  %25 = load ptr, ptr %7, align 8, !tbaa !3
  %26 = tail call double @N_VDotProd(ptr noundef %24, ptr noundef %25) #7
  %27 = getelementptr inbounds nuw ptr, ptr %1, i64 %indvars.iv
  %28 = load ptr, ptr %27, align 8, !tbaa !10
  %29 = getelementptr inbounds nuw double, ptr %28, i64 %20
  store double %26, ptr %29, align 8, !tbaa !12
  %30 = load ptr, ptr %7, align 8, !tbaa !3
  %31 = fneg double %26
  %32 = load ptr, ptr %23, align 8, !tbaa !3
  tail call void @N_VLinearSum(double noundef 1.000000e+00, ptr noundef %30, double noundef %31, ptr noundef %32, ptr noundef %30) #7
  %indvars.iv.next = add nuw nsw i64 %indvars.iv, 1
  %exitcond.not = icmp eq i64 %indvars.iv.next, %wide.trip.count
  br i1 %exitcond.not, label %._crit_edge, label %22

._crit_edge:                                      ; preds = %22, %14
  %33 = load ptr, ptr %7, align 8, !tbaa !3
  %34 = tail call double @N_VDotProd(ptr noundef %33, ptr noundef %33) #7
  %35 = fcmp ugt double %34, 0.000000e+00
  br i1 %35, label %36, label %38

36:                                               ; preds = %._crit_edge
  %37 = tail call double @sqrt(double noundef %34) #7, !tbaa !8
  br label %38

38:                                               ; preds = %._crit_edge, %36
  %39 = phi double [ %37, %36 ], [ 0.000000e+00, %._crit_edge ]
  store double %39, ptr %4, align 8, !tbaa !12
  %40 = fadd double %15, %39
  %41 = fcmp une double %40, %15
  %brmerge = or i1 %41, %19
  br i1 %brmerge, label %._crit_edge92.thread, label %.lr.ph91

.lr.ph91:                                         ; preds = %38
  %42 = zext nneg i32 %16 to i64
  %43 = zext nneg i32 %18 to i64
  %wide.trip.count97 = zext nneg i32 %2 to i64
  br label %44

44:                                               ; preds = %.lr.ph91, %62
  %indvars.iv94 = phi i64 [ %43, %.lr.ph91 ], [ %indvars.iv.next95, %62 ]
  %.090 = phi double [ 0.000000e+00, %.lr.ph91 ], [ %.1, %62 ]
  %45 = getelementptr inbounds nuw ptr, ptr %0, i64 %indvars.iv94
  %46 = load ptr, ptr %45, align 8, !tbaa !3
  %47 = load ptr, ptr %7, align 8, !tbaa !3
  %48 = tail call double @N_VDotProd(ptr noundef %46, ptr noundef %47) #7
  %49 = getelementptr inbounds nuw ptr, ptr %1, i64 %indvars.iv94
  %50 = load ptr, ptr %49, align 8, !tbaa !10
  %51 = getelementptr inbounds nuw double, ptr %50, i64 %42
  %52 = load double, ptr %51, align 8, !tbaa !12
  %53 = fmul double %52, 1.000000e+03
  %54 = fadd double %48, %53
  %55 = fcmp oeq double %54, %53
  br i1 %55, label %62, label %56

56:                                               ; preds = %44
  %57 = fadd double %48, %52
  store double %57, ptr %51, align 8, !tbaa !12
  %58 = load ptr, ptr %7, align 8, !tbaa !3
  %59 = fneg double %48
  %60 = load ptr, ptr %45, align 8, !tbaa !3
  tail call void @N_VLinearSum(double noundef 1.000000e+00, ptr noundef %58, double noundef %59, ptr noundef %60, ptr noundef %58) #7
  %61 = tail call double @llvm.fmuladd.f64(double %48, double %48, double %.090)
  br label %62

62:                                               ; preds = %44, %56
  %.1 = phi double [ %.090, %44 ], [ %61, %56 ]
  %indvars.iv.next95 = add nuw nsw i64 %indvars.iv94, 1
  %exitcond98.not = icmp eq i64 %indvars.iv.next95, %wide.trip.count97
  br i1 %exitcond98.not, label %._crit_edge92, label %44

._crit_edge92:                                    ; preds = %62
  %63 = fcmp une double %.1, 0.000000e+00
  br i1 %63, label %64, label %._crit_edge92.thread

64:                                               ; preds = %._crit_edge92
  %65 = load double, ptr %4, align 8, !tbaa !12
  %66 = fneg double %.1
  %67 = tail call double @llvm.fmuladd.f64(double %65, double %65, double %66)
  %or.cond = fcmp ule double %67, 0.000000e+00
  br i1 %or.cond, label %70, label %68

68:                                               ; preds = %64
  %69 = tail call double @sqrt(double noundef %67) #7, !tbaa !8
  br label %70

70:                                               ; preds = %64, %68
  %71 = phi double [ %69, %68 ], [ 0.000000e+00, %64 ]
  store double %71, ptr %4, align 8, !tbaa !12
  br label %._crit_edge92.thread

._crit_edge92.thread:                             ; preds = %38, %._crit_edge92, %70
  ret i32 0
}